target datalayout = "e-m:e-p270:32:32-p271:32:32-p272:64:64-i64:64-i128:128-f80:128-n8:16:32:64-S128"
target triple = "x86_64-unknown-linux-gnu"

%"struct.std::array" = type { [64 x i8] }
%"class.folly::Range" = type { ptr, ptr }
%"class.std::__cxx11::basic_string" = type { %"struct.std::__cxx11::basic_string<char>::_Alloc_hider", i64, %union.anon }
%"struct.std::__cxx11::basic_string<char>::_Alloc_hider" = type { ptr }
%union.anon = type { i64, [8 x i8] }

@_ZN8facebook5velox8encodingL14kBase64CharsetE = internal constant %"struct.std::array" { [64 x i8] c"ABCDEFGHIJKLMNOPQRSTUVWXYZabcdefghijklmnopqrstuvwxyz0123456789+/" }, align 1

; Function Attrs: mustprogress uwtable
define void @_ZN8facebook5velox8encoding6Base646encodeB5cxx11EN5folly5RangeIPKcEE(ptr noalias sret(%"class.std::__cxx11::basic_string") align 8 %agg.result, ptr %text.coerce0, ptr %text.coerce1) #1 align 2 {
entry:
  %result.ptr = alloca ptr, align 8
  %text = alloca %"class.folly::Range", align 8
  store ptr %agg.result, ptr %result.ptr, align 8
  %0 = getelementptr inbounds { ptr, ptr }, ptr %text, i32 0, i32 0
  store ptr %text.coerce0, ptr %0, align 8
  %1 = getelementptr inbounds { ptr, ptr }, ptr %text, i32 0, i32 1
  store ptr %text.coerce1, ptr %1, align 8
  call void @_ZN8facebook5velox8encoding6Base6410encodeImplIN5folly5RangeIPKcEEEENSt7__cxx1112basic_stringIcSt11char_traitsIcESaIcEEERKT_RKSt5arrayIcLm64EEb(ptr sret(%"class.std::__cxx11::basic_string") align 8 %agg.result, ptr noundef nonnull align 8 dereferenceable(16) %text, ptr noundef nonnull align 1 dereferenceable(64) @_ZN8facebook5velox8encodingL14kBase64CharsetE, i1 noundef zeroext true)
  ret void
}